; Function Attrs: nounwind uwtable
define void @lv_draw_vector(ptr noundef %0) local_unnamed_addr #3 {
  %2 = getelementptr inbounds nuw i8, ptr %0, i64 496
  %3 = load ptr, ptr %2, align 8, !tbaa !57
  %.not = icmp eq ptr %3, null
  br i1 %.not, label %13, label %4

4:                                                ; preds = %1
  %5 = getelementptr inbounds nuw i8, ptr %0, i64 448
  %6 = load ptr, ptr %0, align 8, !tbaa !30
  %7 = getelementptr inbounds nuw i8, ptr %6, i64 28
  %8 = tail call ptr @lv_draw_add_task(ptr noundef %6, ptr noundef nonnull %7) #9
  %9 = getelementptr inbounds nuw i8, ptr %8, i64 8
  store i32 12, ptr %9, align 8, !tbaa !105
  %10 = tail call ptr @lv_malloc(i64 noundef 56) #9
  %11 = getelementptr inbounds nuw i8, ptr %8, i64 80
  store ptr %10, ptr %11, align 8, !tbaa !107
  %12 = tail call ptr @lv_memcpy(ptr noundef %10, ptr noundef nonnull %5, i64 noundef 56) #9
  tail call void @lv_draw_finalize_task_creation(ptr noundef %6, ptr noundef %8) #9
  store ptr null, ptr %2, align 8, !tbaa !57
  br label %13

13:                                               ; preds = %1, %4
  ret void
}